target datalayout = "e-m:e-p270:32:32-p271:32:32-p272:64:64-i64:64-i128:128-f80:128-n8:16:32:64-S128"
target triple = "x86_64-pc-linux-gnu"

%struct.Vector2 = type { float, float }

; Function Attrs: nounwind uwtable
define <2 x float> @GetSplinePointBezierQuad(<2 x float> %0, <2 x float> %1, <2 x float> %2, float noundef %3) #0 {
  %5 = alloca %struct.Vector2, align 4
  %6 = alloca %struct.Vector2, align 4
  %7 = alloca %struct.Vector2, align 4
  %8 = alloca %struct.Vector2, align 4
  %9 = alloca float, align 4
  %10 = alloca float, align 4
  %11 = alloca float, align 4
  %12 = alloca float, align 4
  store <2 x float> %0, ptr %6, align 4
  store <2 x float> %1, ptr %7, align 4
  store <2 x float> %2, ptr %8, align 4
  store float %3, ptr %9, align 4
  call void @llvm.memset.p0.i64(ptr align 4 %5, i8 0, i64 8, i1 false)
  call void @llvm.lifetime.start.p0(i64 4, ptr %10) #8
  %13 = load float, ptr %9, align 4
  %14 = fsub float 1.000000e+00, %13
  %15 = call float @powf(float noundef %14, float noundef 2.000000e+00) #8
  store float %15, ptr %10, align 4
  call void @llvm.lifetime.start.p0(i64 4, ptr %11) #8
  %16 = load float, ptr %9, align 4
  %17 = fsub float 1.000000e+00, %16
  %18 = fmul float 2.000000e+00, %17
  %19 = load float, ptr %9, align 4
  %20 = fmul float %18, %19
  store float %20, ptr %11, align 4
  call void @llvm.lifetime.start.p0(i64 4, ptr %12) #8
  %21 = load float, ptr %9, align 4
  %22 = call float @powf(float noundef %21, float noundef 2.000000e+00) #8
  store float %22, ptr %12, align 4
  %23 = load float, ptr %10, align 4
  %24 = getelementptr inbounds nuw %struct.Vector2, ptr %6, i32 0, i32 1
  %25 = load float, ptr %24, align 4
  %26 = load float, ptr %11, align 4
  %27 = getelementptr inbounds nuw %struct.Vector2, ptr %7, i32 0, i32 1
  %28 = load float, ptr %27, align 4
  %29 = fmul float %26, %28
  %30 = call float @llvm.fmuladd.f32(float %23, float %25, float %29)
  %31 = load float, ptr %12, align 4
  %32 = getelementptr inbounds nuw %struct.Vector2, ptr %8, i32 0, i32 1
  %33 = load float, ptr %32, align 4
  %34 = call float @llvm.fmuladd.f32(float %31, float %33, float %30)
  %35 = getelementptr inbounds nuw %struct.Vector2, ptr %5, i32 0, i32 1
  store float %34, ptr %35, align 4
  %36 = load float, ptr %10, align 4
  %37 = getelementptr inbounds nuw %struct.Vector2, ptr %6, i32 0, i32 0
  %38 = load float, ptr %37, align 4
  %39 = load float, ptr %11, align 4
  %40 = getelementptr inbounds nuw %struct.Vector2, ptr %7, i32 0, i32 0
  %41 = load float, ptr %40, align 4
  %42 = fmul float %39, %41
  %43 = call float @llvm.fmuladd.f32(float %36, float %38, float %42)
  %44 = load float, ptr %12, align 4
  %45 = getelementptr inbounds nuw %struct.Vector2, ptr %8, i32 0, i32 0
  %46 = load float, ptr %45, align 4
  %47 = call float @llvm.fmuladd.f32(float %44, float %46, float %43)
  %48 = getelementptr inbounds nuw %struct.Vector2, ptr %5, i32 0, i32 0
  store float %47, ptr %48, align 4
  call void @llvm.lifetime.end.p0(i64 4, ptr %12) #8
  call void @llvm.lifetime.end.p0(i64 4, ptr %11) #8
  call void @llvm.lifetime.end.p0(i64 4, ptr %10) #8
  %49 = load <2 x float>, ptr %5, align 4
  ret <2 x float> %49
}