; Function Attrs: mustprogress nofree norecurse nosync nounwind willreturn memory(none) uwtable
define <2 x float> @GetSplinePointBezierQuad(<2 x float> %0, <2 x float> %1, <2 x float> %2, float noundef %3) local_unnamed_addr #11 {
  %5 = fsub float 1.000000e+00, %3
  %square = fmul float %5, %5
  %6 = fmul float %5, 2.000000e+00
  %7 = fmul float %3, %6
  %square14 = fmul float %3, %3
  %.sroa.011.4.vec.extract = extractelement <2 x float> %0, i64 1
  %.sroa.010.4.vec.extract = extractelement <2 x float> %1, i64 1
  %8 = fmul float %.sroa.010.4.vec.extract, %7
  %9 = tail call float @llvm.fmuladd.f32(float %square, float %.sroa.011.4.vec.extract, float %8)
  %.sroa.0.4.vec.extract = extractelement <2 x float> %2, i64 1
  %10 = tail call float @llvm.fmuladd.f32(float %square14, float %.sroa.0.4.vec.extract, float %9)
  %.sroa.011.0.vec.extract = extractelement <2 x float> %0, i64 0
  %.sroa.010.0.vec.extract = extractelement <2 x float> %1, i64 0
  %11 = fmul float %.sroa.010.0.vec.extract, %7
  %12 = tail call float @llvm.fmuladd.f32(float %square, float %.sroa.011.0.vec.extract, float %11)
  %.sroa.0.0.vec.extract = extractelement <2 x float> %2, i64 0
  %13 = tail call float @llvm.fmuladd.f32(float %square14, float %.sroa.0.0.vec.extract, float %12)
  %14 = insertelement <2 x float> poison, float %13, i64 0
  %.sroa.012.0.vec.insert = insertelement <2 x float> %14, float %10, i64 1
  ret <2 x float> %.sroa.012.0.vec.insert
}